target datalayout = "e-m:e-p270:32:32-p271:32:32-p272:64:64-i64:64-i128:128-f80:128-n8:16:32:64-S128"
target triple = "x86_64-pc-linux-gnu"

%struct.conn = type { i32, ptr, ptr }
%struct.addrinfo = type { i32, i32, i32, i32, i32, ptr, ptr, ptr }

@stderr = external global ptr, align 8
@.str.218 = private unnamed_addr constant [46 x i8] c"Failed to allocate the client connection: %s\0A\00", align 1
@.str.219 = private unnamed_addr constant [30 x i8] c"Failed to connect socket: %s\0A\00", align 1
@.str.220 = private unnamed_addr constant [39 x i8] c"Failed to enable nonblocking mode: %s\0A\00", align 1
@.str.221 = private unnamed_addr constant [29 x i8] c"Failed to create socket: %s\0A\00", align 1
@.str.222 = private unnamed_addr constant [3 x i8] c"%d\00", align 1
@.str.223 = private unnamed_addr constant [19 x i8] c"getaddrinfo(): %s\0A\00", align 1
@.str.224 = private unnamed_addr constant [14 x i8] c"getaddrinfo()\00", align 1

; Function Attrs: nounwind uwtable
define internal ptr @lookuphost(ptr noundef %0, i16 noundef zeroext %1) #0 {
  %3 = alloca ptr, align 8
  %4 = alloca i16, align 2
  %5 = alloca ptr, align 8
  %6 = alloca %struct.addrinfo, align 8
  %7 = alloca [32 x i8], align 16
  %8 = alloca i32, align 4
  store ptr %0, ptr %3, align 8, !tbaa !8
  store i16 %1, ptr %4, align 2, !tbaa !41
  call void @llvm.lifetime.start.p0(i64 8, ptr %5) #12
  store ptr null, ptr %5, align 8, !tbaa !70
  call void @llvm.lifetime.start.p0(i64 48, ptr %6) #12
  call void @llvm.memset.p0.i64(ptr align 8 %6, i8 0, i64 48, i1 false)
  %9 = getelementptr inbounds { i32, i32, i32, i32, i32, [4 x i8], ptr, ptr, ptr }, ptr %6, i32 0, i32 2
  store i32 1, ptr %9, align 8
  %10 = getelementptr inbounds { i32, i32, i32, i32, i32, [4 x i8], ptr, ptr, ptr }, ptr %6, i32 0, i32 3
  store i32 6, ptr %10, align 4
  call void @llvm.lifetime.start.p0(i64 32, ptr %7) #12
  call void @llvm.lifetime.start.p0(i64 4, ptr %8) #12
  %11 = getelementptr inbounds [32 x i8], ptr %7, i64 0, i64 0
  %12 = load i16, ptr %4, align 2, !tbaa !41
  %13 = zext i16 %12 to i32
  %14 = call i32 (ptr, i64, ptr, ...) @snprintf(ptr noundef %11, i64 noundef 32, ptr noundef @.str.222, i32 noundef %13) #12
  %15 = load ptr, ptr %3, align 8, !tbaa !8
  %16 = getelementptr inbounds [32 x i8], ptr %7, i64 0, i64 0
  %17 = call i32 @getaddrinfo(ptr noundef %15, ptr noundef %16, ptr noundef %6, ptr noundef %5)
  store i32 %17, ptr %8, align 4, !tbaa !10
  %18 = icmp ne i32 %17, 0
  br i1 %18, label %19, label %29

19:                                               ; preds = %2
  %20 = load i32, ptr %8, align 4, !tbaa !10
  %21 = icmp ne i32 %20, -11
  br i1 %21, label %22, label %27

22:                                               ; preds = %19
  %23 = load ptr, ptr @stderr, align 8, !tbaa !37
  %24 = load i32, ptr %8, align 4, !tbaa !10
  %25 = call ptr @gai_strerror(i32 noundef %24) #12
  %26 = call i32 (ptr, ptr, ...) @fprintf(ptr noundef %23, ptr noundef @.str.223, ptr noundef %25) #12
  br label %28

27:                                               ; preds = %19
  call void @perror(ptr noundef @.str.224)
  br label %28

28:                                               ; preds = %27, %22
  br label %29

29:                                               ; preds = %28, %2
  %30 = load ptr, ptr %5, align 8, !tbaa !70
  call void @llvm.lifetime.end.p0(i64 4, ptr %8) #12
  call void @llvm.lifetime.end.p0(i64 32, ptr %7) #12
  call void @llvm.lifetime.end.p0(i64 48, ptr %6) #12
  call void @llvm.lifetime.end.p0(i64 8, ptr %5) #12
  ret ptr %30
}

; Function Attrs: nounwind uwtable
define internal ptr @connect_server(ptr noundef %0, i16 noundef zeroext %1, i1 noundef zeroext %2, i1 noundef zeroext %3) #0 {
  %5 = alloca ptr, align 8
  %6 = alloca ptr, align 8
  %7 = alloca i16, align 2
  %8 = alloca i8, align 1
  %9 = alloca i8, align 1
  %10 = alloca ptr, align 8
  %11 = alloca i32, align 4
  %12 = alloca ptr, align 8
  %13 = alloca i32, align 4
  %14 = alloca i32, align 4
  store ptr %0, ptr %6, align 8, !tbaa !8
  store i16 %1, ptr %7, align 2, !tbaa !41
  %15 = zext i1 %2 to i8
  store i8 %15, ptr %8, align 1, !tbaa !31
  %16 = zext i1 %3 to i8
  store i8 %16, ptr %9, align 1, !tbaa !31
  call void @llvm.lifetime.start.p0(i64 8, ptr %10) #12
  %17 = call noalias ptr @calloc(i64 noundef 1, i64 noundef 24) #14
  store ptr %17, ptr %10, align 8, !tbaa !39
  %18 = icmp ne ptr %17, null
  br i1 %18, label %25, label %19

19:                                               ; preds = %4
  %20 = load ptr, ptr @stderr, align 8, !tbaa !37
  %21 = call ptr @__errno_location() #16
  %22 = load i32, ptr %21, align 4, !tbaa !10
  %23 = call ptr @strerror(i32 noundef %22) #12
  %24 = call i32 (ptr, ptr, ...) @fprintf(ptr noundef %20, ptr noundef @.str.218, ptr noundef %23) #12
  store ptr null, ptr %5, align 8
  store i32 1, ptr %11, align 4
  br label %103

25:                                               ; preds = %4
  call void @llvm.lifetime.start.p0(i64 8, ptr %12) #12
  %26 = load ptr, ptr %6, align 8, !tbaa !8
  %27 = load i16, ptr %7, align 2, !tbaa !41
  %28 = call ptr @lookuphost(ptr noundef %26, i16 noundef zeroext %27)
  store ptr %28, ptr %12, align 8, !tbaa !70
  call void @llvm.lifetime.start.p0(i64 4, ptr %13) #12
  store i32 -1, ptr %13, align 4, !tbaa !10
  %29 = load ptr, ptr %12, align 8, !tbaa !70
  %30 = icmp ne ptr %29, null
  br i1 %30, label %31, label %94

31:                                               ; preds = %25
  %32 = load ptr, ptr %12, align 8, !tbaa !70
  %33 = getelementptr inbounds nuw %struct.addrinfo, ptr %32, i32 0, i32 1
  %34 = load i32, ptr %33, align 4, !tbaa !72
  %35 = load ptr, ptr %12, align 8, !tbaa !70
  %36 = getelementptr inbounds nuw %struct.addrinfo, ptr %35, i32 0, i32 2
  %37 = load i32, ptr %36, align 8, !tbaa !75
  %38 = load ptr, ptr %12, align 8, !tbaa !70
  %39 = getelementptr inbounds nuw %struct.addrinfo, ptr %38, i32 0, i32 3
  %40 = load i32, ptr %39, align 4, !tbaa !76
  %41 = call i32 @socket(i32 noundef %34, i32 noundef %37, i32 noundef %40) #12
  store i32 %41, ptr %13, align 4, !tbaa !10
  %42 = icmp ne i32 %41, -1
  br i1 %42, label %43, label %86

43:                                               ; preds = %31
  %44 = load i32, ptr %13, align 4, !tbaa !10
  %45 = load ptr, ptr %12, align 8, !tbaa !70
  %46 = getelementptr inbounds nuw %struct.addrinfo, ptr %45, i32 0, i32 5
  %47 = load ptr, ptr %46, align 8, !tbaa !77
  %48 = load ptr, ptr %12, align 8, !tbaa !70
  %49 = getelementptr inbounds nuw %struct.addrinfo, ptr %48, i32 0, i32 4
  %50 = load i32, ptr %49, align 8, !tbaa !78
  %51 = call i32 @connect(i32 noundef %44, ptr noundef %47, i32 noundef %50)
  %52 = icmp eq i32 %51, -1
  br i1 %52, label %53, label %61

53:                                               ; preds = %43
  %54 = load ptr, ptr @stderr, align 8, !tbaa !37
  %55 = call ptr @__errno_location() #16
  %56 = load i32, ptr %55, align 4, !tbaa !10
  %57 = call ptr @strerror(i32 noundef %56) #12
  %58 = call i32 (ptr, ptr, ...) @fprintf(ptr noundef %54, ptr noundef @.str.219, ptr noundef %57) #12
  %59 = load i32, ptr %13, align 4, !tbaa !10
  %60 = call i32 @close(i32 noundef %59)
  store i32 -1, ptr %13, align 4, !tbaa !10
  br label %85

61:                                               ; preds = %43
  %62 = load i8, ptr %8, align 1, !tbaa !31, !range !34, !noundef !35
  %63 = trunc i8 %62 to i1
  br i1 %63, label %64, label %84

64:                                               ; preds = %61
  call void @llvm.lifetime.start.p0(i64 4, ptr %14) #12
  %65 = load i32, ptr %13, align 4, !tbaa !10
  %66 = call i32 (i32, i32, ...) @fcntl(i32 noundef %65, i32 noundef 3, i32 noundef 0)
  store i32 %66, ptr %14, align 4, !tbaa !10
  %67 = load i32, ptr %14, align 4, !tbaa !10
  %68 = icmp slt i32 %67, 0
  br i1 %68, label %75, label %69

69:                                               ; preds = %64
  %70 = load i32, ptr %13, align 4, !tbaa !10
  %71 = load i32, ptr %14, align 4, !tbaa !10
  %72 = or i32 %71, 2048
  %73 = call i32 (i32, i32, ...) @fcntl(i32 noundef %70, i32 noundef 4, i32 noundef %72)
  %74 = icmp slt i32 %73, 0
  br i1 %74, label %75, label %83

75:                                               ; preds = %69, %64
  %76 = load ptr, ptr @stderr, align 8, !tbaa !37
  %77 = call ptr @__errno_location() #16
  %78 = load i32, ptr %77, align 4, !tbaa !10
  %79 = call ptr @strerror(i32 noundef %78) #12
  %80 = call i32 (ptr, ptr, ...) @fprintf(ptr noundef %76, ptr noundef @.str.220, ptr noundef %79) #12
  %81 = load i32, ptr %13, align 4, !tbaa !10
  %82 = call i32 @close(i32 noundef %81)
  store i32 -1, ptr %13, align 4, !tbaa !10
  br label %83

83:                                               ; preds = %75, %69
  call void @llvm.lifetime.end.p0(i64 4, ptr %14) #12
  br label %84

84:                                               ; preds = %83, %61
  br label %85

85:                                               ; preds = %84, %53
  br label %92

86:                                               ; preds = %31
  %87 = load ptr, ptr @stderr, align 8, !tbaa !37
  %88 = call ptr @__errno_location() #16
  %89 = load i32, ptr %88, align 4, !tbaa !10
  %90 = call ptr @strerror(i32 noundef %89) #12
  %91 = call i32 (ptr, ptr, ...) @fprintf(ptr noundef %87, ptr noundef @.str.221, ptr noundef %90) #12
  br label %92

92:                                               ; preds = %86, %85
  %93 = load ptr, ptr %12, align 8, !tbaa !70
  call void @freeaddrinfo(ptr noundef %93) #12
  br label %94

94:                                               ; preds = %92, %25
  %95 = load i32, ptr %13, align 4, !tbaa !10
  %96 = load ptr, ptr %10, align 8, !tbaa !39
  %97 = getelementptr inbounds nuw %struct.conn, ptr %96, i32 0, i32 0
  store i32 %95, ptr %97, align 8, !tbaa !43
  %98 = load ptr, ptr %10, align 8, !tbaa !39
  %99 = getelementptr inbounds nuw %struct.conn, ptr %98, i32 0, i32 1
  store ptr @tcp_read, ptr %99, align 8, !tbaa !52
  %100 = load ptr, ptr %10, align 8, !tbaa !39
  %101 = getelementptr inbounds nuw %struct.conn, ptr %100, i32 0, i32 2
  store ptr @tcp_write, ptr %101, align 8, !tbaa !46
  %102 = load ptr, ptr %10, align 8, !tbaa !39
  store ptr %102, ptr %5, align 8
  store i32 1, ptr %11, align 4
  call void @llvm.lifetime.end.p0(i64 4, ptr %13) #12
  call void @llvm.lifetime.end.p0(i64 8, ptr %12) #12
  br label %103

103:                                              ; preds = %94, %19
  call void @llvm.lifetime.end.p0(i64 8, ptr %10) #12
  %104 = load ptr, ptr %5, align 8
  ret ptr %104
}