; Function Attrs: nounwind uwtable
define internal fastcc noalias noundef ptr @connect_server(i16 noundef zeroext %0, i1 noundef zeroext %1) unnamed_addr #0 {
  %3 = alloca ptr, align 8
  %4 = alloca %struct.addrinfo, align 8
  %5 = alloca [32 x i8], align 16
  %6 = tail call noalias dereferenceable_or_null(24) ptr @calloc(i64 noundef 1, i64 noundef 24) #23
  %.not = icmp eq ptr %6, null
  br i1 %.not, label %7, label %13

7:                                                ; preds = %2
  %8 = load ptr, ptr @stderr, align 8, !tbaa !44
  %9 = tail call ptr @__errno_location() #25
  %10 = load i32, ptr %9, align 4, !tbaa !9
  %11 = tail call ptr @strerror(i32 noundef %10) #21
  %12 = tail call i32 (ptr, ptr, ...) @fprintf(ptr noundef %8, ptr noundef nonnull @.str.218, ptr noundef %11) #26
  br label %72

13:                                               ; preds = %2
  call void @llvm.lifetime.start.p0(i64 8, ptr nonnull %3) #21
  store ptr null, ptr %3, align 8, !tbaa !66
  call void @llvm.lifetime.start.p0(i64 48, ptr nonnull %4) #21
  call void @llvm.memset.p0.i64(ptr noundef nonnull align 8 dereferenceable(48) %4, i8 0, i64 48, i1 false)
  %14 = getelementptr inbounds nuw i8, ptr %4, i64 8
  store i32 1, ptr %14, align 8
  %15 = getelementptr inbounds nuw i8, ptr %4, i64 12
  store i32 6, ptr %15, align 4
  call void @llvm.lifetime.start.p0(i64 32, ptr nonnull %5) #21
  %16 = zext i16 %0 to i32
  %17 = call i32 (ptr, i64, ptr, ...) @snprintf(ptr noundef nonnull dereferenceable(1) %5, i64 noundef 32, ptr noundef nonnull @.str.222, i32 noundef %16) #21
  %18 = call i32 @getaddrinfo(ptr noundef nonnull @.str.211, ptr noundef nonnull %5, ptr noundef nonnull %4, ptr noundef nonnull %3) #21
  switch i32 %18, label %19 [
    i32 0, label %lookuphost.exit
    i32 -11, label %23
  ]

19:                                               ; preds = %13
  %20 = load ptr, ptr @stderr, align 8, !tbaa !44
  %21 = call ptr @gai_strerror(i32 noundef %18) #21
  %22 = call i32 (ptr, ptr, ...) @fprintf(ptr noundef %20, ptr noundef nonnull @.str.223, ptr noundef %21) #26
  br label %lookuphost.exit

23:                                               ; preds = %13
  call void @perror(ptr noundef nonnull @.str.224) #28
  br label %lookuphost.exit

lookuphost.exit:                                  ; preds = %13, %19, %23
  %24 = load ptr, ptr %3, align 8, !tbaa !66
  call void @llvm.lifetime.end.p0(i64 32, ptr nonnull %5) #21
  call void @llvm.lifetime.end.p0(i64 48, ptr nonnull %4) #21
  call void @llvm.lifetime.end.p0(i64 8, ptr nonnull %3) #21
  %.not28 = icmp eq ptr %24, null
  br i1 %.not28, label %69, label %25

25:                                               ; preds = %lookuphost.exit
  %26 = getelementptr inbounds nuw i8, ptr %24, i64 4
  %27 = load i32, ptr %26, align 4, !tbaa !68
  %28 = getelementptr inbounds nuw i8, ptr %24, i64 8
  %29 = load i32, ptr %28, align 8, !tbaa !71
  %30 = getelementptr inbounds nuw i8, ptr %24, i64 12
  %31 = load i32, ptr %30, align 4, !tbaa !72
  %32 = call i32 @socket(i32 noundef %27, i32 noundef %29, i32 noundef %31) #21
  %.not29 = icmp eq i32 %32, -1
  br i1 %.not29, label %62, label %33

33:                                               ; preds = %25
  %34 = getelementptr inbounds nuw i8, ptr %24, i64 24
  %35 = load ptr, ptr %34, align 8, !tbaa !73
  %36 = getelementptr inbounds nuw i8, ptr %24, i64 16
  %37 = load i32, ptr %36, align 8, !tbaa !74
  %38 = call i32 @connect(i32 noundef %32, ptr noundef %35, i32 noundef %37) #21
  %39 = icmp eq i32 %38, -1
  br i1 %39, label %40, label %47

40:                                               ; preds = %33
  %41 = load ptr, ptr @stderr, align 8, !tbaa !44
  %42 = tail call ptr @__errno_location() #25
  %43 = load i32, ptr %42, align 4, !tbaa !9
  %44 = call ptr @strerror(i32 noundef %43) #21
  %45 = call i32 (ptr, ptr, ...) @fprintf(ptr noundef %41, ptr noundef nonnull @.str.219, ptr noundef %44) #26
  %46 = call i32 @close(i32 noundef %32) #21
  br label %68

47:                                               ; preds = %33
  br i1 %1, label %48, label %68

48:                                               ; preds = %47
  %49 = call i32 (i32, i32, ...) @fcntl(i32 noundef %32, i32 noundef 3, i32 noundef 0) #21
  %50 = icmp slt i32 %49, 0
  br i1 %50, label %55, label %51

51:                                               ; preds = %48
  %52 = or i32 %49, 2048
  %53 = call i32 (i32, i32, ...) @fcntl(i32 noundef %32, i32 noundef 4, i32 noundef %52) #21
  %54 = icmp slt i32 %53, 0
  br i1 %54, label %55, label %68

55:                                               ; preds = %51, %48
  %56 = load ptr, ptr @stderr, align 8, !tbaa !44
  %57 = tail call ptr @__errno_location() #25
  %58 = load i32, ptr %57, align 4, !tbaa !9
  %59 = call ptr @strerror(i32 noundef %58) #21
  %60 = call i32 (ptr, ptr, ...) @fprintf(ptr noundef %56, ptr noundef nonnull @.str.220, ptr noundef %59) #26
  %61 = call i32 @close(i32 noundef %32) #21
  br label %68

62:                                               ; preds = %25
  %63 = load ptr, ptr @stderr, align 8, !tbaa !44
  %64 = tail call ptr @__errno_location() #25
  %65 = load i32, ptr %64, align 4, !tbaa !9
  %66 = call ptr @strerror(i32 noundef %65) #21
  %67 = call i32 (ptr, ptr, ...) @fprintf(ptr noundef %63, ptr noundef nonnull @.str.221, ptr noundef %66) #26
  br label %68

68:                                               ; preds = %51, %55, %40, %47, %62
  %.2 = phi i32 [ -1, %40 ], [ %32, %47 ], [ -1, %62 ], [ -1, %55 ], [ %32, %51 ]
  call void @freeaddrinfo(ptr noundef nonnull %24) #21
  br label %69

69:                                               ; preds = %68, %lookuphost.exit
  %.022 = phi i32 [ %.2, %68 ], [ -1, %lookuphost.exit ]
  store i32 %.022, ptr %6, align 8, !tbaa !37
  %70 = getelementptr inbounds nuw i8, ptr %6, i64 8
  store ptr @tcp_read, ptr %70, align 8, !tbaa !47
  %71 = getelementptr inbounds nuw i8, ptr %6, i64 16
  store ptr @tcp_write, ptr %71, align 8, !tbaa !39
  br label %72

72:                                               ; preds = %69, %7
  ret ptr %6
}